; Function Attrs: null_pointer_is_valid sspstrong uwtable
define hidden i32 @samr_dissect_struct_DomInfo1(ptr noundef %0, i32 noundef %1, ptr noundef %2, ptr noundef %3, ptr noundef %4, ptr noundef %5, i32 noundef %6, i32 %7) local_unnamed_addr #0 {
  %9 = getelementptr inbounds nuw i8, ptr %4, i64 25
  %10 = load i8, ptr %9, align 1, !range !6, !noundef !7
  %11 = trunc nuw i8 %10 to i1
  %12 = and i32 %1, 3
  %.not = icmp eq i32 %12, 0
  %or.cond = or i1 %.not, %11
  %13 = and i32 %1, -4
  %14 = add i32 %13, 4
  %.0 = select i1 %or.cond, i32 %1, i32 %14
  %.not50 = icmp eq ptr %3, null
  br i1 %.not50, label %19, label %15

15:                                               ; preds = %8
  %16 = tail call ptr @proto_tree_add_item(ptr noundef nonnull %3, i32 noundef %6, ptr noundef %0, i32 noundef %.0, i32 noundef -1, i32 noundef 0)
  %17 = load i32, ptr @ett_samr_samr_DomInfo1, align 4
  %18 = tail call ptr @proto_item_add_subtree(ptr noundef %16, i32 noundef %17)
  br label %19

19:                                               ; preds = %15, %8
  %.048 = phi ptr [ %16, %15 ], [ null, %8 ]
  %.047 = phi ptr [ %18, %15 ], [ null, %8 ]
  %20 = load i32, ptr @hf_samr_samr_DomInfo1_min_password_length, align 4
  %21 = tail call i32 @PIDL_dissect_uint16(ptr noundef %0, i32 noundef %.0, ptr noundef %2, ptr noundef %.047, ptr noundef %4, ptr noundef %5, i32 noundef %20, i32 noundef 0)
  %22 = load i32, ptr @hf_samr_samr_DomInfo1_password_history_length, align 4
  %23 = tail call i32 @PIDL_dissect_uint16(ptr noundef %0, i32 noundef %21, ptr noundef %2, ptr noundef %.047, ptr noundef %4, ptr noundef %5, i32 noundef %22, i32 noundef 0)
  %24 = load i32, ptr @hf_samr_samr_DomInfo1_password_properties, align 4
  %25 = tail call i32 @samr_dissect_bitmap_PasswordProperties(ptr noundef %0, i32 noundef %23, ptr noundef %2, ptr noundef %.047, ptr noundef %4, ptr noundef %5, i32 noundef %24, i32 poison)
  %26 = load i32, ptr @hf_samr_samr_DomInfo1_max_password_age, align 4
  %27 = tail call i32 @dissect_ndr_duint32(ptr noundef %0, i32 noundef %25, ptr noundef %2, ptr noundef %.047, ptr noundef %4, ptr noundef %5, i32 noundef %26, ptr noundef null)
  %28 = load i32, ptr @hf_samr_samr_DomInfo1_min_password_age, align 4
  %29 = tail call i32 @dissect_ndr_duint32(ptr noundef %0, i32 noundef %27, ptr noundef %2, ptr noundef %.047, ptr noundef %4, ptr noundef %5, i32 noundef %28, ptr noundef null)
  %30 = sub i32 %29, %.0
  tail call void @proto_item_set_len(ptr noundef %.048, i32 noundef %30)
  %31 = getelementptr inbounds nuw i8, ptr %4, i64 64
  %32 = load ptr, ptr %31, align 8
  %33 = getelementptr inbounds nuw i8, ptr %32, i64 96
  %34 = load i32, ptr %33, align 8
  %35 = and i32 %34, 1
  %.not51 = icmp eq i32 %35, 0
  br i1 %.not51, label %43, label %36

36:                                               ; preds = %19
  %37 = load i8, ptr %9, align 1, !range !6, !noundef !7
  %38 = trunc nuw i8 %37 to i1
  %39 = and i32 %29, 3
  %.not52 = icmp eq i32 %39, 0
  %or.cond53 = or i1 %.not52, %38
  br i1 %or.cond53, label %43, label %40

40:                                               ; preds = %36
  %41 = and i32 %29, -4
  %42 = add i32 %41, 4
  br label %43

43:                                               ; preds = %36, %40, %19
  %.1 = phi i32 [ %29, %36 ], [ %42, %40 ], [ %29, %19 ]
  ret i32 %.1
}